target datalayout = "e-m:e-p270:32:32-p271:32:32-p272:64:64-i64:64-i128:128-f80:128-n8:16:32:64-S128"
target triple = "x86_64-pc-linux-gnu"

; Function Attrs: nounwind uwtable
define internal ptr @Unroll4Bytes(ptr noundef %0, ptr noundef %1, ptr noundef %2, i32 noundef %3) #0 {
  %5 = alloca ptr, align 8
  %6 = alloca ptr, align 8
  %7 = alloca ptr, align 8
  %8 = alloca i32, align 4
  store ptr %0, ptr %5, align 8
  store ptr %1, ptr %6, align 8
  store ptr %2, ptr %7, align 8
  store i32 %3, ptr %8, align 4
  %9 = load ptr, ptr %7, align 8
  %10 = load i8, ptr %9, align 1
  %11 = zext i8 %10 to i16
  %12 = zext i16 %11 to i32
  %13 = shl i32 %12, 8
  %14 = load ptr, ptr %7, align 8
  %15 = load i8, ptr %14, align 1
  %16 = zext i8 %15 to i32
  %17 = or i32 %13, %16
  %18 = trunc i32 %17 to i16
  %19 = load ptr, ptr %6, align 8
  %20 = getelementptr inbounds i16, ptr %19, i64 0
  store i16 %18, ptr %20, align 2
  %21 = load ptr, ptr %7, align 8
  %22 = getelementptr inbounds i8, ptr %21, i32 1
  store ptr %22, ptr %7, align 8
  %23 = load ptr, ptr %7, align 8
  %24 = load i8, ptr %23, align 1
  %25 = zext i8 %24 to i16
  %26 = zext i16 %25 to i32
  %27 = shl i32 %26, 8
  %28 = load ptr, ptr %7, align 8
  %29 = load i8, ptr %28, align 1
  %30 = zext i8 %29 to i32
  %31 = or i32 %27, %30
  %32 = trunc i32 %31 to i16
  %33 = load ptr, ptr %6, align 8
  %34 = getelementptr inbounds i16, ptr %33, i64 1
  store i16 %32, ptr %34, align 2
  %35 = load ptr, ptr %7, align 8
  %36 = getelementptr inbounds i8, ptr %35, i32 1
  store ptr %36, ptr %7, align 8
  %37 = load ptr, ptr %7, align 8
  %38 = load i8, ptr %37, align 1
  %39 = zext i8 %38 to i16
  %40 = zext i16 %39 to i32
  %41 = shl i32 %40, 8
  %42 = load ptr, ptr %7, align 8
  %43 = load i8, ptr %42, align 1
  %44 = zext i8 %43 to i32
  %45 = or i32 %41, %44
  %46 = trunc i32 %45 to i16
  %47 = load ptr, ptr %6, align 8
  %48 = getelementptr inbounds i16, ptr %47, i64 2
  store i16 %46, ptr %48, align 2
  %49 = load ptr, ptr %7, align 8
  %50 = getelementptr inbounds i8, ptr %49, i32 1
  store ptr %50, ptr %7, align 8
  %51 = load ptr, ptr %7, align 8
  %52 = load i8, ptr %51, align 1
  %53 = zext i8 %52 to i16
  %54 = zext i16 %53 to i32
  %55 = shl i32 %54, 8
  %56 = load ptr, ptr %7, align 8
  %57 = load i8, ptr %56, align 1
  %58 = zext i8 %57 to i32
  %59 = or i32 %55, %58
  %60 = trunc i32 %59 to i16
  %61 = load ptr, ptr %6, align 8
  %62 = getelementptr inbounds i16, ptr %61, i64 3
  store i16 %60, ptr %62, align 2
  %63 = load ptr, ptr %7, align 8
  %64 = getelementptr inbounds i8, ptr %63, i32 1
  store ptr %64, ptr %7, align 8
  %65 = load ptr, ptr %7, align 8
  ret ptr %65
}