; Function Attrs: mustprogress nofree norecurse nosync nounwind willreturn memory(argmem: readwrite) uwtable
define internal nonnull ptr @Unroll4Bytes(ptr nocapture readnone %0, ptr nocapture noundef writeonly %1, ptr noundef readonly %2, i32 %3) #3 {
  %5 = load i8, ptr %2, align 1
  %6 = zext i8 %5 to i16
  %7 = shl nuw i16 %6, 8
  %8 = or disjoint i16 %7, %6
  store i16 %8, ptr %1, align 2
  %9 = getelementptr inbounds i8, ptr %2, i64 1
  %10 = load i8, ptr %9, align 1
  %11 = zext i8 %10 to i16
  %12 = shl nuw i16 %11, 8
  %13 = or disjoint i16 %12, %11
  %14 = getelementptr inbounds i8, ptr %1, i64 2
  store i16 %13, ptr %14, align 2
  %15 = getelementptr inbounds i8, ptr %2, i64 2
  %16 = load i8, ptr %15, align 1
  %17 = zext i8 %16 to i16
  %18 = shl nuw i16 %17, 8
  %19 = or disjoint i16 %18, %17
  %20 = getelementptr inbounds i8, ptr %1, i64 4
  store i16 %19, ptr %20, align 2
  %21 = getelementptr inbounds i8, ptr %2, i64 3
  %22 = load i8, ptr %21, align 1
  %23 = zext i8 %22 to i16
  %24 = shl nuw i16 %23, 8
  %25 = or disjoint i16 %24, %23
  %26 = getelementptr inbounds i8, ptr %1, i64 6
  store i16 %25, ptr %26, align 2
  %27 = getelementptr inbounds i8, ptr %2, i64 4
  ret ptr %27
}